target datalayout = "e-m:e-p270:32:32-p271:32:32-p272:64:64-i64:64-i128:128-f80:128-n8:16:32:64-S128"
target triple = "x86_64-pc-linux-gnu"

%struct.PJconsts = type { ptr, ptr, ptr, ptr, ptr, ptr, ptr, ptr, ptr, ptr, ptr, ptr, i32, ptr, ptr, ptr, ptr, ptr, ptr, ptr, ptr, double, double, double, double, double, double, double, double, double, double, double, double, double, double, double, double, double, double, double, double, double, double, i32, i32, i32, i32, i32, i32, i32, i32, i32, i32, i32, ptr, ptr, ptr, ptr, ptr, ptr, double, double, double, double, double, double, double, double, double, double, double, i32, [7 x double], i32, ptr, ptr, double, double, i32, [4 x i8], %"class.std::shared_ptr", i8, double, i8, %"class.std::__cxx11::basic_string", %"class.std::__cxx11::basic_string", %"class.std::__cxx11::basic_string", i8, %"class.std::vector", i32, %"class.std::vector.3", i32, i8, i8, i8, ptr }
%"class.std::shared_ptr" = type { %"class.std::__shared_ptr" }
%"class.std::__shared_ptr" = type { ptr, %"class.std::__shared_count" }
%"class.std::__shared_count" = type { ptr }
%"class.std::__cxx11::basic_string" = type { %"struct.std::__cxx11::basic_string<char>::_Alloc_hider", i64, %union.anon }
%"struct.std::__cxx11::basic_string<char>::_Alloc_hider" = type { ptr }
%union.anon = type { i64, [8 x i8] }
%"class.std::vector" = type { %"struct.std::_Vector_base" }
%"struct.std::_Vector_base" = type { %"struct.std::_Vector_base<osgeo::proj::operation::GridDescription, std::allocator<osgeo::proj::operation::GridDescription>>::_Vector_impl" }
%"struct.std::_Vector_base<osgeo::proj::operation::GridDescription, std::allocator<osgeo::proj::operation::GridDescription>>::_Vector_impl" = type { %"struct.std::_Vector_base<osgeo::proj::operation::GridDescription, std::allocator<osgeo::proj::operation::GridDescription>>::_Vector_impl_data" }
%"struct.std::_Vector_base<osgeo::proj::operation::GridDescription, std::allocator<osgeo::proj::operation::GridDescription>>::_Vector_impl_data" = type { ptr, ptr, ptr }
%"class.std::vector.3" = type { %"struct.std::_Vector_base.4" }
%"struct.std::_Vector_base.4" = type { %"struct.std::_Vector_base<PJCoordOperation, std::allocator<PJCoordOperation>>::_Vector_impl" }
%"struct.std::_Vector_base<PJCoordOperation, std::allocator<PJCoordOperation>>::_Vector_impl" = type { %"struct.std::_Vector_base<PJCoordOperation, std::allocator<PJCoordOperation>>::_Vector_impl_data" }
%"struct.std::_Vector_base<PJCoordOperation, std::allocator<PJCoordOperation>>::_Vector_impl_data" = type { ptr, ptr, ptr }
%"struct.(anonymous namespace)::cass_data" = type { ptr, double, i8 }
%struct.PJ_LP = type { double, double }
%struct.PJ_XY = type { double, double }

; Function Attrs: mustprogress uwtable
define internal { double, double } @_ZL14cass_e_forward5PJ_LPP8PJconsts(double %0, double %1, ptr noundef %2) #0 {
  %4 = alloca %struct.PJ_XY, align 8
  %5 = alloca %struct.PJ_LP, align 8
  %6 = alloca ptr, align 8
  %7 = alloca ptr, align 8
  %8 = alloca double, align 8
  %9 = alloca double, align 8
  %10 = alloca double, align 8
  %11 = alloca double, align 8
  %12 = alloca double, align 8
  %13 = alloca double, align 8
  %14 = alloca double, align 8
  %15 = alloca double, align 8
  %16 = alloca double, align 8
  %17 = alloca double, align 8
  %18 = alloca double, align 8
  %19 = getelementptr inbounds nuw { double, double }, ptr %5, i32 0, i32 0
  store double %0, ptr %19, align 8
  %20 = getelementptr inbounds nuw { double, double }, ptr %5, i32 0, i32 1
  store double %1, ptr %20, align 8
  store ptr %2, ptr %6, align 8, !tbaa !3
  call void @llvm.memset.p0.i64(ptr align 8 %4, i8 0, i64 16, i1 false)
  call void @llvm.lifetime.start.p0(i64 8, ptr %7) #9
  %21 = load ptr, ptr %6, align 8, !tbaa !3
  %22 = getelementptr inbounds nuw %struct.PJconsts, ptr %21, i32 0, i32 11
  %23 = load ptr, ptr %22, align 8, !tbaa !46
  store ptr %23, ptr %7, align 8, !tbaa !44
  call void @llvm.lifetime.start.p0(i64 8, ptr %8) #9
  %24 = getelementptr inbounds nuw %struct.PJ_LP, ptr %5, i32 0, i32 1
  %25 = load double, ptr %24, align 8, !tbaa !61
  %26 = call double @sin(double noundef %25) #9, !tbaa !53
  store double %26, ptr %8, align 8, !tbaa !59
  call void @llvm.lifetime.start.p0(i64 8, ptr %9) #9
  %27 = getelementptr inbounds nuw %struct.PJ_LP, ptr %5, i32 0, i32 1
  %28 = load double, ptr %27, align 8, !tbaa !61
  %29 = call double @cos(double noundef %28) #9, !tbaa !53
  store double %29, ptr %9, align 8, !tbaa !59
  call void @llvm.lifetime.start.p0(i64 8, ptr %10) #9
  %30 = getelementptr inbounds nuw %struct.PJ_LP, ptr %5, i32 0, i32 1
  %31 = load double, ptr %30, align 8, !tbaa !61
  %32 = load double, ptr %8, align 8, !tbaa !59
  %33 = load double, ptr %9, align 8, !tbaa !59
  %34 = load ptr, ptr %7, align 8, !tbaa !44
  %35 = getelementptr inbounds nuw %"struct.(anonymous namespace)::cass_data", ptr %34, i32 0, i32 0
  %36 = load ptr, ptr %35, align 8, !tbaa !49
  %37 = call noundef double @_Z7pj_mlfndddPKd(double noundef %31, double noundef %32, double noundef %33, ptr noundef %36)
  store double %37, ptr %10, align 8, !tbaa !59
  call void @llvm.lifetime.start.p0(i64 8, ptr %11) #9
  %38 = load ptr, ptr %6, align 8, !tbaa !3
  %39 = getelementptr inbounds nuw %struct.PJconsts, ptr %38, i32 0, i32 27
  %40 = load double, ptr %39, align 8, !tbaa !41
  %41 = load double, ptr %8, align 8, !tbaa !59
  %42 = fmul double %40, %41
  %43 = load double, ptr %8, align 8, !tbaa !59
  %44 = fneg double %42
  %45 = call double @llvm.fmuladd.f64(double %44, double %43, double 1.000000e+00)
  %46 = fdiv double 1.000000e+00, %45
  store double %46, ptr %11, align 8, !tbaa !59
  call void @llvm.lifetime.start.p0(i64 8, ptr %12) #9
  %47 = load double, ptr %11, align 8, !tbaa !59
  %48 = call double @sqrt(double noundef %47) #9, !tbaa !53
  store double %48, ptr %12, align 8, !tbaa !59
  call void @llvm.lifetime.start.p0(i64 8, ptr %13) #9
  %49 = getelementptr inbounds nuw %struct.PJ_LP, ptr %5, i32 0, i32 1
  %50 = load double, ptr %49, align 8, !tbaa !61
  %51 = call double @tan(double noundef %50) #9, !tbaa !53
  store double %51, ptr %13, align 8, !tbaa !59
  call void @llvm.lifetime.start.p0(i64 8, ptr %14) #9
  %52 = load double, ptr %13, align 8, !tbaa !59
  %53 = load double, ptr %13, align 8, !tbaa !59
  %54 = fmul double %52, %53
  store double %54, ptr %14, align 8, !tbaa !59
  call void @llvm.lifetime.start.p0(i64 8, ptr %15) #9
  %55 = getelementptr inbounds nuw %struct.PJ_LP, ptr %5, i32 0, i32 0
  %56 = load double, ptr %55, align 8, !tbaa !63
  %57 = load double, ptr %9, align 8, !tbaa !59
  %58 = fmul double %56, %57
  store double %58, ptr %15, align 8, !tbaa !59
  call void @llvm.lifetime.start.p0(i64 8, ptr %16) #9
  %59 = load ptr, ptr %6, align 8, !tbaa !3
  %60 = getelementptr inbounds nuw %struct.PJconsts, ptr %59, i32 0, i32 27
  %61 = load double, ptr %60, align 8, !tbaa !41
  %62 = load double, ptr %9, align 8, !tbaa !59
  %63 = load double, ptr %9, align 8, !tbaa !59
  %64 = fmul double %62, %63
  %65 = fmul double %61, %64
  %66 = load ptr, ptr %6, align 8, !tbaa !3
  %67 = getelementptr inbounds nuw %struct.PJconsts, ptr %66, i32 0, i32 27
  %68 = load double, ptr %67, align 8, !tbaa !41
  %69 = fsub double 1.000000e+00, %68
  %70 = fdiv double %65, %69
  store double %70, ptr %16, align 8, !tbaa !59
  call void @llvm.lifetime.start.p0(i64 8, ptr %17) #9
  %71 = load double, ptr %15, align 8, !tbaa !59
  %72 = load double, ptr %15, align 8, !tbaa !59
  %73 = fmul double %71, %72
  store double %73, ptr %17, align 8, !tbaa !59
  %74 = load double, ptr %12, align 8, !tbaa !59
  %75 = load double, ptr %15, align 8, !tbaa !59
  %76 = fmul double %74, %75
  %77 = load double, ptr %17, align 8, !tbaa !59
  %78 = load double, ptr %14, align 8, !tbaa !59
  %79 = fmul double %77, %78
  %80 = load double, ptr %14, align 8, !tbaa !59
  %81 = fsub double 8.000000e+00, %80
  %82 = load double, ptr %16, align 8, !tbaa !59
  %83 = call double @llvm.fmuladd.f64(double 8.000000e+00, double %82, double %81)
  %84 = load double, ptr %17, align 8, !tbaa !59
  %85 = fmul double %83, %84
  %86 = call double @llvm.fmuladd.f64(double %85, double 0x3F81111111111111, double 0x3FC5555555555555)
  %87 = fneg double %79
  %88 = call double @llvm.fmuladd.f64(double %87, double %86, double 1.000000e+00)
  %89 = fmul double %76, %88
  %90 = getelementptr inbounds nuw %struct.PJ_XY, ptr %4, i32 0, i32 0
  store double %89, ptr %90, align 8, !tbaa !60
  %91 = load double, ptr %10, align 8, !tbaa !59
  %92 = load ptr, ptr %7, align 8, !tbaa !44
  %93 = getelementptr inbounds nuw %"struct.(anonymous namespace)::cass_data", ptr %92, i32 0, i32 1
  %94 = load double, ptr %93, align 8, !tbaa !54
  %95 = fsub double %91, %94
  %96 = load double, ptr %12, align 8, !tbaa !59
  %97 = load double, ptr %13, align 8, !tbaa !59
  %98 = fmul double %96, %97
  %99 = load double, ptr %17, align 8, !tbaa !59
  %100 = fmul double %98, %99
  %101 = load double, ptr %14, align 8, !tbaa !59
  %102 = fsub double 5.000000e+00, %101
  %103 = load double, ptr %16, align 8, !tbaa !59
  %104 = call double @llvm.fmuladd.f64(double 6.000000e+00, double %103, double %102)
  %105 = load double, ptr %17, align 8, !tbaa !59
  %106 = fmul double %104, %105
  %107 = call double @llvm.fmuladd.f64(double %106, double 0x3FA5555555555555, double 5.000000e-01)
  %108 = call double @llvm.fmuladd.f64(double %100, double %107, double %95)
  %109 = getelementptr inbounds nuw %struct.PJ_XY, ptr %4, i32 0, i32 1
  store double %108, ptr %109, align 8, !tbaa !57
  %110 = load ptr, ptr %7, align 8, !tbaa !44
  %111 = getelementptr inbounds nuw %"struct.(anonymous namespace)::cass_data", ptr %110, i32 0, i32 2
  %112 = load i8, ptr %111, align 8, !tbaa !56, !range !65, !noundef !66
  %113 = trunc i8 %112 to i1
  br i1 %113, label %114, label %139

114:                                              ; preds = %3
  call void @llvm.lifetime.start.p0(i64 8, ptr %18) #9
  %115 = load double, ptr %11, align 8, !tbaa !59
  %116 = load ptr, ptr %6, align 8, !tbaa !3
  %117 = getelementptr inbounds nuw %struct.PJconsts, ptr %116, i32 0, i32 27
  %118 = load double, ptr %117, align 8, !tbaa !41
  %119 = fsub double 1.000000e+00, %118
  %120 = fmul double %115, %119
  %121 = load double, ptr %12, align 8, !tbaa !59
  %122 = fmul double %120, %121
  store double %122, ptr %18, align 8, !tbaa !59
  %123 = getelementptr inbounds nuw %struct.PJ_XY, ptr %4, i32 0, i32 1
  %124 = load double, ptr %123, align 8, !tbaa !57
  %125 = getelementptr inbounds nuw %struct.PJ_XY, ptr %4, i32 0, i32 1
  %126 = load double, ptr %125, align 8, !tbaa !57
  %127 = fmul double %124, %126
  %128 = getelementptr inbounds nuw %struct.PJ_XY, ptr %4, i32 0, i32 1
  %129 = load double, ptr %128, align 8, !tbaa !57
  %130 = fmul double %127, %129
  %131 = load double, ptr %18, align 8, !tbaa !59
  %132 = fmul double 6.000000e+00, %131
  %133 = load double, ptr %12, align 8, !tbaa !59
  %134 = fmul double %132, %133
  %135 = fdiv double %130, %134
  %136 = getelementptr inbounds nuw %struct.PJ_XY, ptr %4, i32 0, i32 1
  %137 = load double, ptr %136, align 8, !tbaa !57
  %138 = fsub double %137, %135
  store double %138, ptr %136, align 8, !tbaa !57
  call void @llvm.lifetime.end.p0(i64 8, ptr %18) #9
  br label %139

139:                                              ; preds = %114, %3
  call void @llvm.lifetime.end.p0(i64 8, ptr %17) #9
  call void @llvm.lifetime.end.p0(i64 8, ptr %16) #9
  call void @llvm.lifetime.end.p0(i64 8, ptr %15) #9
  call void @llvm.lifetime.end.p0(i64 8, ptr %14) #9
  call void @llvm.lifetime.end.p0(i64 8, ptr %13) #9
  call void @llvm.lifetime.end.p0(i64 8, ptr %12) #9
  call void @llvm.lifetime.end.p0(i64 8, ptr %11) #9
  call void @llvm.lifetime.end.p0(i64 8, ptr %10) #9
  call void @llvm.lifetime.end.p0(i64 8, ptr %9) #9
  call void @llvm.lifetime.end.p0(i64 8, ptr %8) #9
  call void @llvm.lifetime.end.p0(i64 8, ptr %7) #9
  %140 = load { double, double }, ptr %4, align 8
  ret { double, double } %140
}