; Function Attrs: mustprogress uwtable
define internal { double, double } @_ZL14cass_e_forward5PJ_LPP8PJconsts(double %0, double %1, ptr noundef readonly captures(none) %2) #0 {
  %4 = getelementptr inbounds nuw i8, ptr %2, i64 88
  %5 = load ptr, ptr %4, align 8, !tbaa !43
  %6 = tail call double @sin(double noundef %1) #8, !tbaa !50
  %7 = tail call double @cos(double noundef %1) #8, !tbaa !50
  %8 = load ptr, ptr %5, align 8, !tbaa !46
  %9 = tail call noundef double @_Z7pj_mlfndddPKd(double noundef %1, double noundef %6, double noundef %7, ptr noundef %8)
  %10 = getelementptr inbounds nuw i8, ptr %2, i64 216
  %11 = load double, ptr %10, align 8, !tbaa !40
  %12 = fneg double %6
  %13 = fmul double %11, %12
  %14 = tail call double @llvm.fmuladd.f64(double %13, double %6, double 1.000000e+00)
  %15 = fdiv double 1.000000e+00, %14
  %16 = tail call double @sqrt(double noundef %15) #8, !tbaa !50
  %17 = tail call double @tan(double noundef %1) #8, !tbaa !50
  %18 = fmul double %17, %17
  %19 = fmul double %0, %7
  %20 = fmul double %7, %7
  %21 = fmul double %20, %11
  %22 = fsub double 1.000000e+00, %11
  %23 = fdiv double %21, %22
  %24 = fmul double %19, %19
  %25 = getelementptr inbounds nuw i8, ptr %5, i64 8
  %26 = load double, ptr %25, align 8, !tbaa !51
  %27 = fsub double %9, %26
  %28 = fmul double %16, %17
  %29 = fmul double %24, %28
  %30 = fsub double 5.000000e+00, %18
  %31 = tail call double @llvm.fmuladd.f64(double %23, double 6.000000e+00, double %30)
  %32 = fmul double %24, %31
  %33 = tail call double @llvm.fmuladd.f64(double %32, double 0x3FA5555555555555, double 5.000000e-01)
  %34 = tail call double @llvm.fmuladd.f64(double %29, double %33, double %27)
  %35 = getelementptr inbounds nuw i8, ptr %5, i64 16
  %36 = load i8, ptr %35, align 8, !tbaa !53, !range !54, !noundef !55
  %37 = trunc nuw i8 %36 to i1
  br i1 %37, label %38, label %47

38:                                               ; preds = %3
  %39 = fmul double %22, %15
  %40 = fmul double %16, %39
  %41 = fmul double %34, %34
  %42 = fmul double %34, %41
  %43 = fmul double %40, 6.000000e+00
  %44 = fmul double %16, %43
  %45 = fdiv double %42, %44
  %46 = fsub double %34, %45
  br label %47

47:                                               ; preds = %38, %3
  %.sroa.3.0 = phi double [ %46, %38 ], [ %34, %3 ]
  %48 = fmul double %19, %16
  %49 = fneg double %18
  %50 = fmul double %24, %49
  %51 = fsub double 8.000000e+00, %18
  %52 = tail call double @llvm.fmuladd.f64(double %23, double 8.000000e+00, double %51)
  %53 = fmul double %24, %52
  %54 = tail call double @llvm.fmuladd.f64(double %53, double 0x3F81111111111111, double 0x3FC5555555555555)
  %55 = tail call double @llvm.fmuladd.f64(double %50, double %54, double 1.000000e+00)
  %56 = fmul double %48, %55
  %.fca.0.insert = insertvalue { double, double } poison, double %56, 0
  %.fca.1.insert = insertvalue { double, double } %.fca.0.insert, double %.sroa.3.0, 1
  ret { double, double } %.fca.1.insert
}